; Function Attrs: mustprogress nofree norecurse nosync nounwind memory(argmem: readwrite) uwtable
define hidden void @_ZNK19OpenColorIO_v2_5dev18Lin2LogRendererSSE5applyEPKvPvl(ptr noundef nonnull readonly align 8 captures(none) dereferenceable(136) %0, ptr noundef readonly captures(none) %1, ptr noundef writeonly captures(none) %2, i64 noundef %3) unnamed_addr #10 align 2 {
  %5 = getelementptr inbounds nuw i8, ptr %0, i64 88
  %6 = getelementptr inbounds nuw i8, ptr %0, i64 96
  %7 = load float, ptr %6, align 8, !tbaa !111
  %8 = getelementptr inbounds nuw i8, ptr %0, i64 92
  %9 = load float, ptr %8, align 4, !tbaa !111
  %10 = load float, ptr %5, align 8, !tbaa !111
  %11 = insertelement <4 x float> <float poison, float poison, float poison, float 0.000000e+00>, float %10, i64 0
  %12 = insertelement <4 x float> %11, float %9, i64 1
  %13 = insertelement <4 x float> %12, float %7, i64 2
  %14 = getelementptr inbounds nuw i8, ptr %0, i64 100
  %15 = getelementptr inbounds nuw i8, ptr %0, i64 108
  %16 = load float, ptr %15, align 4, !tbaa !111
  %17 = getelementptr inbounds nuw i8, ptr %0, i64 104
  %18 = load float, ptr %17, align 8, !tbaa !111
  %19 = load float, ptr %14, align 4, !tbaa !111
  %20 = insertelement <4 x float> <float poison, float poison, float poison, float 0.000000e+00>, float %19, i64 0
  %21 = insertelement <4 x float> %20, float %18, i64 1
  %22 = insertelement <4 x float> %21, float %16, i64 2
  %23 = getelementptr inbounds nuw i8, ptr %0, i64 112
  %24 = getelementptr inbounds nuw i8, ptr %0, i64 120
  %25 = load float, ptr %24, align 8, !tbaa !111
  %26 = getelementptr inbounds nuw i8, ptr %0, i64 116
  %27 = load float, ptr %26, align 4, !tbaa !111
  %28 = load float, ptr %23, align 8, !tbaa !111
  %29 = insertelement <4 x float> <float poison, float poison, float poison, float 0.000000e+00>, float %28, i64 0
  %30 = insertelement <4 x float> %29, float %27, i64 1
  %31 = insertelement <4 x float> %30, float %25, i64 2
  %32 = getelementptr inbounds nuw i8, ptr %0, i64 124
  %33 = getelementptr inbounds nuw i8, ptr %0, i64 132
  %34 = load float, ptr %33, align 4, !tbaa !111
  %35 = getelementptr inbounds nuw i8, ptr %0, i64 128
  %36 = load float, ptr %35, align 8, !tbaa !111
  %37 = load float, ptr %32, align 4, !tbaa !111
  %38 = insertelement <4 x float> <float poison, float poison, float poison, float 0.000000e+00>, float %37, i64 0
  %39 = insertelement <4 x float> %38, float %36, i64 1
  %40 = insertelement <4 x float> %39, float %34, i64 2
  %41 = icmp sgt i64 %3, 0
  br i1 %41, label %.lr.ph, label %._crit_edge

._crit_edge:                                      ; preds = %.lr.ph, %4
  ret void

.lr.ph:                                           ; preds = %4, %.lr.ph
  %.029 = phi ptr [ %78, %.lr.ph ], [ %1, %4 ]
  %.02528 = phi i64 [ %79, %.lr.ph ], [ 0, %4 ]
  %.02627 = phi ptr [ %77, %.lr.ph ], [ %2, %4 ]
  %42 = getelementptr inbounds nuw i8, ptr %.029, i64 8
  %43 = load float, ptr %42, align 4, !tbaa !111
  %44 = getelementptr inbounds nuw i8, ptr %.029, i64 4
  %45 = load float, ptr %44, align 4, !tbaa !111
  %46 = load float, ptr %.029, align 4, !tbaa !111
  %47 = insertelement <4 x float> <float poison, float poison, float poison, float 0.000000e+00>, float %46, i64 0
  %48 = insertelement <4 x float> %47, float %45, i64 1
  %49 = insertelement <4 x float> %48, float %43, i64 2
  %50 = fmul <4 x float> %13, %49
  %51 = fadd <4 x float> %22, %50
  %52 = tail call noundef <4 x float> @llvm.x86.sse.max.ps(<4 x float> %51, <4 x float> splat (float 0x3810000000000000))
  %53 = bitcast <4 x float> %52 to <4 x i32>
  %54 = and <4 x i32> %53, splat (i32 -2139095041)
  %55 = or disjoint <4 x i32> %54, splat (i32 1065353216)
  %56 = bitcast <4 x i32> %55 to <4 x float>
  %57 = fmul <4 x float> %56, splat (float 0x3FA6F9ACA0000000)
  %58 = fadd <4 x float> %57, splat (float 0xBFDAA8FAE0000000)
  %59 = fmul <4 x float> %58, %56
  %60 = fadd <4 x float> %59, splat (float 0x3FFA192F80000000)
  %61 = fmul <4 x float> %60, %56
  %62 = fadd <4 x float> %61, splat (float 0xC00C680620000000)
  %63 = fmul <4 x float> %62, %56
  %64 = fadd <4 x float> %63, splat (float 0x40145DE980000000)
  %65 = fmul <4 x float> %64, %56
  %66 = fadd <4 x float> %65, splat (float 0xC006672540000000)
  %67 = lshr <4 x i32> %53, splat (i32 23)
  %68 = and <4 x i32> %67, splat (i32 255)
  %69 = add nsw <4 x i32> %68, splat (i32 -127)
  %70 = sitofp <4 x i32> %69 to <4 x float>
  %71 = fadd <4 x float> %66, %70
  %72 = fmul <4 x float> %31, %71
  %73 = fadd <4 x float> %40, %72
  %74 = getelementptr inbounds nuw i8, ptr %.029, i64 12
  %75 = load float, ptr %74, align 4, !tbaa !111
  store <4 x float> %73, ptr %.02627, align 1, !tbaa !115
  %76 = getelementptr inbounds nuw i8, ptr %.02627, i64 12
  store float %75, ptr %76, align 4, !tbaa !111
  %77 = getelementptr inbounds nuw i8, ptr %.02627, i64 16
  %78 = getelementptr inbounds nuw i8, ptr %.029, i64 16
  %79 = add nuw nsw i64 %.02528, 1
  %exitcond.not = icmp eq i64 %79, %3
  br i1 %exitcond.not, label %._crit_edge, label %.lr.ph, !llvm.loop !123
}